target datalayout = "e-m:e-p270:32:32-p271:32:32-p272:64:64-i64:64-i128:128-f80:128-n8:16:32:64-S128"
target triple = "x86_64-pc-linux-gnu"

@PyExc_OverflowError = external global ptr, align 8
@.str.59 = private unnamed_addr constant [17 x i8] c"math range error\00", align 1
@PyExc_ValueError = external global ptr, align 8
@.str.60 = private unnamed_addr constant [18 x i8] c"math domain error\00", align 1

; Function Attrs: nounwind uwtable
define internal i32 @is_error(double noundef %0, i32 noundef %1) #0 {
  %3 = alloca double, align 8
  %4 = alloca i32, align 4
  %5 = alloca i32, align 4
  store double %0, ptr %3, align 8, !tbaa !13
  store i32 %1, ptr %4, align 4, !tbaa !17
  call void @llvm.lifetime.start.p0(i64 4, ptr %5) #10
  store i32 1, ptr %5, align 4, !tbaa !17
  %6 = call ptr @__errno_location() #12
  %7 = load i32, ptr %6, align 4, !tbaa !17
  %8 = icmp eq i32 %7, 33
  br i1 %8, label %9, label %15

9:                                                ; preds = %2
  %10 = load i32, ptr %4, align 4, !tbaa !17
  %11 = icmp ne i32 %10, 0
  br i1 %11, label %12, label %14

12:                                               ; preds = %9
  %13 = load ptr, ptr @PyExc_ValueError, align 8, !tbaa !3
  call void @PyErr_SetString(ptr noundef %13, ptr noundef @.str.60)
  br label %14

14:                                               ; preds = %12, %9
  br label %31

15:                                               ; preds = %2
  %16 = call ptr @__errno_location() #12
  %17 = load i32, ptr %16, align 4, !tbaa !17
  %18 = icmp eq i32 %17, 34
  br i1 %18, label %19, label %27

19:                                               ; preds = %15
  %20 = load double, ptr %3, align 8, !tbaa !13
  %21 = call double @llvm.fabs.f64(double %20)
  %22 = fcmp olt double %21, 1.500000e+00
  br i1 %22, label %23, label %24

23:                                               ; preds = %19
  store i32 0, ptr %5, align 4, !tbaa !17
  br label %26

24:                                               ; preds = %19
  %25 = load ptr, ptr @PyExc_OverflowError, align 8, !tbaa !3
  call void @PyErr_SetString(ptr noundef %25, ptr noundef @.str.59)
  br label %26

26:                                               ; preds = %24, %23
  br label %30

27:                                               ; preds = %15
  %28 = load ptr, ptr @PyExc_ValueError, align 8, !tbaa !3
  %29 = call ptr @PyErr_SetFromErrno(ptr noundef %28)
  br label %30

30:                                               ; preds = %27, %26
  br label %31

31:                                               ; preds = %30, %14
  %32 = load i32, ptr %5, align 4, !tbaa !17
  call void @llvm.lifetime.end.p0(i64 4, ptr %5) #10
  ret i32 %32
}

; Function Attrs: nounwind uwtable
define internal ptr @math_1a(ptr noundef %0, ptr noundef %1, ptr noundef %2) #0 {
  %4 = alloca ptr, align 8
  %5 = alloca ptr, align 8
  %6 = alloca ptr, align 8
  %7 = alloca ptr, align 8
  %8 = alloca double, align 8
  %9 = alloca double, align 8
  %10 = alloca i32, align 4
  %11 = alloca ptr, align 8
  store ptr %0, ptr %5, align 8, !tbaa !3
  store ptr %1, ptr %6, align 8, !tbaa !8
  store ptr %2, ptr %7, align 8, !tbaa !41
  call void @llvm.lifetime.start.p0(i64 8, ptr %8) #10
  call void @llvm.lifetime.start.p0(i64 8, ptr %9) #10
  %12 = load ptr, ptr %5, align 8, !tbaa !3
  %13 = call double @PyFloat_AsDouble(ptr noundef %12)
  store double %13, ptr %8, align 8, !tbaa !13
  %14 = load double, ptr %8, align 8, !tbaa !13
  %15 = fcmp oeq double %14, -1.000000e+00
  br i1 %15, label %16, label %20

16:                                               ; preds = %3
  %17 = call ptr @PyErr_Occurred()
  %18 = icmp ne ptr %17, null
  br i1 %18, label %19, label %20

19:                                               ; preds = %16
  store ptr null, ptr %4, align 8
  store i32 1, ptr %10, align 4
  br label %58

20:                                               ; preds = %16, %3
  %21 = call ptr @__errno_location() #12
  store i32 0, ptr %21, align 4, !tbaa !17
  %22 = load ptr, ptr %6, align 8, !tbaa !8
  %23 = load double, ptr %8, align 8, !tbaa !13
  %24 = call double %22(double noundef %23)
  store double %24, ptr %9, align 8, !tbaa !13
  %25 = call ptr @__errno_location() #12
  %26 = load i32, ptr %25, align 4, !tbaa !17
  %27 = icmp ne i32 %26, 0
  br i1 %27, label %28, label %55

28:                                               ; preds = %20
  %29 = load double, ptr %9, align 8, !tbaa !13
  %30 = load ptr, ptr %7, align 8, !tbaa !41
  %31 = icmp ne ptr %30, null
  %32 = select i1 %31, i32 0, i32 1
  %33 = call i32 @is_error(double noundef %29, i32 noundef %32)
  %34 = icmp ne i32 %33, 0
  br i1 %34, label %35, label %55

35:                                               ; preds = %28
  %36 = load ptr, ptr %7, align 8, !tbaa !41
  %37 = icmp ne ptr %36, null
  br i1 %37, label %38, label %54

38:                                               ; preds = %35
  %39 = call ptr @__errno_location() #12
  %40 = load i32, ptr %39, align 4, !tbaa !17
  %41 = icmp eq i32 %40, 33
  br i1 %41, label %42, label %54

42:                                               ; preds = %38
  call void @llvm.lifetime.start.p0(i64 8, ptr %11) #10
  %43 = load double, ptr %8, align 8, !tbaa !13
  %44 = call ptr @PyOS_double_to_string(double noundef %43, i8 noundef signext 114, i32 noundef 0, i32 noundef 2, ptr noundef null)
  store ptr %44, ptr %11, align 8, !tbaa !41
  %45 = load ptr, ptr %11, align 8, !tbaa !41
  %46 = icmp ne ptr %45, null
  br i1 %46, label %47, label %53

47:                                               ; preds = %42
  %48 = load ptr, ptr @PyExc_ValueError, align 8, !tbaa !3
  %49 = load ptr, ptr %7, align 8, !tbaa !41
  %50 = load ptr, ptr %11, align 8, !tbaa !41
  %51 = call ptr (ptr, ptr, ...) @PyErr_Format(ptr noundef %48, ptr noundef %49, ptr noundef %50)
  %52 = load ptr, ptr %11, align 8, !tbaa !41
  call void @PyMem_Free(ptr noundef %52)
  br label %53

53:                                               ; preds = %47, %42
  call void @llvm.lifetime.end.p0(i64 8, ptr %11) #10
  br label %54

54:                                               ; preds = %53, %38, %35
  store ptr null, ptr %4, align 8
  store i32 1, ptr %10, align 4
  br label %58

55:                                               ; preds = %28, %20
  %56 = load double, ptr %9, align 8, !tbaa !13
  %57 = call ptr @PyFloat_FromDouble(double noundef %56)
  store ptr %57, ptr %4, align 8
  store i32 1, ptr %10, align 4
  br label %58

58:                                               ; preds = %55, %54, %19
  call void @llvm.lifetime.end.p0(i64 8, ptr %9) #10
  call void @llvm.lifetime.end.p0(i64 8, ptr %8) #10
  %59 = load ptr, ptr %4, align 8
  ret ptr %59
}

; Function Attrs: nounwind uwtable
define internal ptr @math_erfc(ptr noundef %0, ptr noundef %1) #0 {
  %3 = alloca ptr, align 8
  %4 = alloca ptr, align 8
  store ptr %0, ptr %3, align 8, !tbaa !3
  store ptr %1, ptr %4, align 8, !tbaa !3
  %5 = load ptr, ptr %4, align 8, !tbaa !3
  %6 = call ptr @math_1a(ptr noundef %5, ptr noundef @erfc, ptr noundef null)
  ret ptr %6
}