; Function Attrs: nounwind uwtable
define internal ptr @math_erfc(ptr readnone captures(none) %0, ptr noundef %1) #0 {
  %3 = tail call double @PyFloat_AsDouble(ptr noundef %1) #16
  %4 = fcmp oeq double %3, -1.000000e+00
  br i1 %4, label %5, label %7

5:                                                ; preds = %2
  %6 = tail call ptr @PyErr_Occurred() #16
  %.not.i = icmp eq ptr %6, null
  br i1 %.not.i, label %7, label %math_1a.exit

7:                                                ; preds = %5, %2
  %8 = tail call ptr @__errno_location() #17
  store i32 0, ptr %8, align 4, !tbaa !14
  %9 = tail call double @erfc(double noundef %3) #16, !callees !36
  %10 = load i32, ptr %8, align 4, !tbaa !14
  switch i32 %10, label %18 [
    i32 0, label %is_error.exit.i
    i32 33, label %11
    i32 34, label %13
  ]

11:                                               ; preds = %7
  %12 = load ptr, ptr @PyExc_ValueError, align 8, !tbaa !12
  tail call void @PyErr_SetString(ptr noundef %12, ptr noundef nonnull @.str.60) #16
  br label %math_1a.exit

13:                                               ; preds = %7
  %14 = tail call double @llvm.fabs.f64(double %9)
  %15 = fcmp olt double %14, 1.500000e+00
  br i1 %15, label %is_error.exit.i, label %16

16:                                               ; preds = %13
  %17 = load ptr, ptr @PyExc_OverflowError, align 8, !tbaa !12
  tail call void @PyErr_SetString(ptr noundef %17, ptr noundef nonnull @.str.59) #16
  br label %math_1a.exit

18:                                               ; preds = %7
  %19 = load ptr, ptr @PyExc_ValueError, align 8, !tbaa !12
  %20 = tail call ptr @PyErr_SetFromErrno(ptr noundef %19) #16
  br label %math_1a.exit

is_error.exit.i:                                  ; preds = %7, %13
  %21 = tail call ptr @PyFloat_FromDouble(double noundef %9) #16
  br label %math_1a.exit

math_1a.exit:                                     ; preds = %16, %18, %5, %11, %is_error.exit.i
  %.0.i = phi ptr [ %21, %is_error.exit.i ], [ null, %5 ], [ null, %11 ], [ null, %18 ], [ null, %16 ]
  ret ptr %.0.i
}